target datalayout = "e-m:e-p270:32:32-p271:32:32-p272:64:64-i64:64-i128:128-f80:128-n8:16:32:64-S128"
target triple = "x86_64-pc-linux-gnu"

%struct.FSMAddress = type { i32, i32 }
%struct.SMgrRelationData = type { %struct.RelFileLocatorBackend, i32, [4 x i32], i32, [4 x i32], [4 x ptr], i32, %struct.dlist_node }
%struct.RelFileLocatorBackend = type { %struct.RelFileLocator, i32 }
%struct.RelFileLocator = type { i32, i32, i32 }
%struct.dlist_node = type { ptr, ptr }
%struct.PageHeaderData = type { %struct.PageXLogRecPtr, i16, i16, i16, i16, i16, i16, i32, [0 x %struct.ItemIdData] }
%struct.PageXLogRecPtr = type { i32, i32 }
%struct.ItemIdData = type { i32 }
%struct.RelationData = type { %struct.RelFileLocator, ptr, i32, i32, i8, i8, i8, i8, i8, i32, i32, i32, i32, ptr, ptr, i32, %struct.LockInfoData, ptr, ptr, ptr, ptr, ptr, i8, ptr, ptr, ptr, ptr, ptr, ptr, i32, ptr, i8, ptr, ptr, i32, i8, i32, ptr, i8, ptr, ptr, ptr, ptr, ptr, ptr, ptr, i32, ptr, ptr, ptr, ptr, ptr, ptr, ptr, ptr, ptr, ptr, ptr, ptr, ptr, ptr, ptr, ptr, ptr, ptr, ptr, i32, i8, ptr }
%struct.LockInfoData = type { %struct.LockRelId }
%struct.LockRelId = type { i32, i32 }
%struct.BufferManagerRelation = type { ptr, ptr, i8 }

@LocalBufferBlockPointers = external global ptr, align 8
@BufferBlocks = external global ptr, align 8

; Function Attrs: inlinehint nounwind uwtable
define internal ptr @BufferGetBlock(i32 noundef %0) #4 {
  %2 = alloca ptr, align 8
  %3 = alloca i32, align 4
  store i32 %0, ptr %3, align 4
  %4 = load i32, ptr %3, align 4
  %5 = icmp slt i32 %4, 0
  br i1 %5, label %6, label %14

6:                                                ; preds = %1
  %7 = load ptr, ptr @LocalBufferBlockPointers, align 8
  %8 = load i32, ptr %3, align 4
  %9 = sub i32 0, %8
  %10 = sub i32 %9, 1
  %11 = sext i32 %10 to i64
  %12 = getelementptr inbounds ptr, ptr %7, i64 %11
  %13 = load ptr, ptr %12, align 8
  store ptr %13, ptr %2, align 8
  br label %21

14:                                               ; preds = %1
  %15 = load ptr, ptr @BufferBlocks, align 8
  %16 = load i32, ptr %3, align 4
  %17 = sub i32 %16, 1
  %18 = sext i32 %17 to i64
  %19 = mul i64 %18, 8192
  %20 = getelementptr inbounds nuw i8, ptr %15, i64 %19
  store ptr %20, ptr %2, align 8
  br label %21

21:                                               ; preds = %14, %6
  %22 = load ptr, ptr %2, align 8
  ret ptr %22
}

; Function Attrs: inlinehint nounwind uwtable
define internal zeroext i1 @PageIsNew(ptr noundef %0) #4 {
  %2 = alloca ptr, align 8
  store ptr %0, ptr %2, align 8
  %3 = load ptr, ptr %2, align 8
  %4 = getelementptr inbounds nuw %struct.PageHeaderData, ptr %3, i32 0, i32 4
  %5 = load i16, ptr %4, align 2
  %6 = zext i16 %5 to i32
  %7 = icmp eq i32 %6, 0
  ret i1 %7
}

; Function Attrs: inlinehint nounwind uwtable
define internal ptr @BufferGetPage(i32 noundef %0) #4 {
  %2 = alloca i32, align 4
  store i32 %0, ptr %2, align 4
  %3 = load i32, ptr %2, align 4
  %4 = call ptr @BufferGetBlock(i32 noundef %3)
  ret ptr %4
}

; Function Attrs: nounwind uwtable
define internal i32 @fsm_extend(ptr noundef %0, i32 noundef %1) #0 {
  %3 = alloca ptr, align 8
  %4 = alloca i32, align 4
  %5 = alloca %struct.BufferManagerRelation, align 8
  store ptr %0, ptr %3, align 8
  store i32 %1, ptr %4, align 4
  %6 = getelementptr inbounds nuw %struct.BufferManagerRelation, ptr %5, i32 0, i32 0
  %7 = load ptr, ptr %3, align 8
  store ptr %7, ptr %6, align 8
  %8 = getelementptr inbounds nuw %struct.BufferManagerRelation, ptr %5, i32 0, i32 1
  store ptr null, ptr %8, align 8
  %9 = getelementptr inbounds nuw %struct.BufferManagerRelation, ptr %5, i32 0, i32 2
  store i8 0, ptr %9, align 8
  %10 = getelementptr i8, ptr %5, i64 17
  call void @llvm.memset.p0.i64(ptr align 1 %10, i8 0, i64 7, i1 false)
  %11 = load i32, ptr %4, align 4
  %12 = call i32 @ExtendBufferedRelTo(ptr noundef byval(%struct.BufferManagerRelation) align 8 %5, i32 noundef 1, ptr noundef null, i32 noundef 20, i32 noundef %11, i32 noundef 3)
  ret i32 %12
}

; Function Attrs: inlinehint nounwind uwtable
define internal ptr @RelationGetSmgr(ptr noundef %0) #4 {
  %2 = alloca ptr, align 8
  %3 = alloca { i64, i32 }, align 8
  store ptr %0, ptr %2, align 8
  %4 = load ptr, ptr %2, align 8
  %5 = getelementptr inbounds nuw %struct.RelationData, ptr %4, i32 0, i32 1
  %6 = load ptr, ptr %5, align 8
  %7 = icmp eq ptr %6, null
  %8 = zext i1 %7 to i32
  %9 = icmp ne i32 %8, 0
  %10 = zext i1 %9 to i32
  %11 = sext i32 %10 to i64
  %12 = call i64 @llvm.expect.i64(i64 %11, i64 0)
  %13 = icmp ne i64 %12, 0
  br i1 %13, label %14, label %30

14:                                               ; preds = %1
  %15 = load ptr, ptr %2, align 8
  %16 = getelementptr inbounds nuw %struct.RelationData, ptr %15, i32 0, i32 0
  %17 = load ptr, ptr %2, align 8
  %18 = getelementptr inbounds nuw %struct.RelationData, ptr %17, i32 0, i32 3
  %19 = load i32, ptr %18, align 4
  call void @llvm.memcpy.p0.p0.i64(ptr align 8 %3, ptr align 8 %16, i64 12, i1 false)
  %20 = getelementptr inbounds nuw { i64, i32 }, ptr %3, i32 0, i32 0
  %21 = load i64, ptr %20, align 8
  %22 = getelementptr inbounds nuw { i64, i32 }, ptr %3, i32 0, i32 1
  %23 = load i32, ptr %22, align 8
  %24 = call ptr @smgropen(i64 %21, i32 %23, i32 noundef %19)
  %25 = load ptr, ptr %2, align 8
  %26 = getelementptr inbounds nuw %struct.RelationData, ptr %25, i32 0, i32 1
  store ptr %24, ptr %26, align 8
  %27 = load ptr, ptr %2, align 8
  %28 = getelementptr inbounds nuw %struct.RelationData, ptr %27, i32 0, i32 1
  %29 = load ptr, ptr %28, align 8
  call void @smgrpin(ptr noundef %29)
  br label %30

30:                                               ; preds = %14, %1
  %31 = load ptr, ptr %2, align 8
  %32 = getelementptr inbounds nuw %struct.RelationData, ptr %31, i32 0, i32 1
  %33 = load ptr, ptr %32, align 8
  ret ptr %33
}

; Function Attrs: nounwind uwtable
define internal i32 @fsm_logical_to_physical(i64 %0) #0 {
  %2 = alloca %struct.FSMAddress, align 4
  %3 = alloca i32, align 4
  %4 = alloca i32, align 4
  %5 = alloca i32, align 4
  store i64 %0, ptr %2, align 4
  call void @llvm.lifetime.start.p0(i64 4, ptr %3) #8
  call void @llvm.lifetime.start.p0(i64 4, ptr %4) #8
  call void @llvm.lifetime.start.p0(i64 4, ptr %5) #8
  %6 = getelementptr inbounds nuw %struct.FSMAddress, ptr %2, i32 0, i32 1
  %7 = load i32, ptr %6, align 4
  store i32 %7, ptr %4, align 4
  store i32 0, ptr %5, align 4
  br label %8

8:                                                ; preds = %18, %1
  %9 = load i32, ptr %5, align 4
  %10 = getelementptr inbounds nuw %struct.FSMAddress, ptr %2, i32 0, i32 0
  %11 = load i32, ptr %10, align 4
  %12 = icmp slt i32 %9, %11
  br i1 %12, label %13, label %21

13:                                               ; preds = %8
  %14 = load i32, ptr %4, align 4
  %15 = sext i32 %14 to i64
  %16 = mul i64 %15, 4069
  %17 = trunc i64 %16 to i32
  store i32 %17, ptr %4, align 4
  br label %18

18:                                               ; preds = %13
  %19 = load i32, ptr %5, align 4
  %20 = add i32 %19, 1
  store i32 %20, ptr %5, align 4
  br label %8, !llvm.loop !4

21:                                               ; preds = %8
  store i32 0, ptr %3, align 4
  store i32 0, ptr %5, align 4
  br label %22

22:                                               ; preds = %34, %21
  %23 = load i32, ptr %5, align 4
  %24 = icmp slt i32 %23, 3
  br i1 %24, label %25, label %37

25:                                               ; preds = %22
  %26 = load i32, ptr %4, align 4
  %27 = add i32 %26, 1
  %28 = load i32, ptr %3, align 4
  %29 = add i32 %28, %27
  store i32 %29, ptr %3, align 4
  %30 = load i32, ptr %4, align 4
  %31 = sext i32 %30 to i64
  %32 = udiv i64 %31, 4069
  %33 = trunc i64 %32 to i32
  store i32 %33, ptr %4, align 4
  br label %34

34:                                               ; preds = %25
  %35 = load i32, ptr %5, align 4
  %36 = add i32 %35, 1
  store i32 %36, ptr %5, align 4
  br label %22, !llvm.loop !6

37:                                               ; preds = %22
  %38 = getelementptr inbounds nuw %struct.FSMAddress, ptr %2, i32 0, i32 0
  %39 = load i32, ptr %38, align 4
  %40 = load i32, ptr %3, align 4
  %41 = sub i32 %40, %39
  store i32 %41, ptr %3, align 4
  %42 = load i32, ptr %3, align 4
  %43 = sub i32 %42, 1
  call void @llvm.lifetime.end.p0(i64 4, ptr %5) #8
  call void @llvm.lifetime.end.p0(i64 4, ptr %4) #8
  call void @llvm.lifetime.end.p0(i64 4, ptr %3) #8
  ret i32 %43
}

; Function Attrs: nounwind uwtable
define internal i32 @fsm_readbuf(ptr noundef %0, i64 %1, i1 noundef zeroext %2) #0 {
  %4 = alloca i32, align 4
  %5 = alloca %struct.FSMAddress, align 4
  %6 = alloca ptr, align 8
  %7 = alloca i8, align 1
  %8 = alloca i32, align 4
  %9 = alloca i32, align 4
  %10 = alloca ptr, align 8
  %11 = alloca i32, align 4
  store i64 %1, ptr %5, align 4
  store ptr %0, ptr %6, align 8
  %12 = zext i1 %2 to i8
  store i8 %12, ptr %7, align 1
  call void @llvm.lifetime.start.p0(i64 4, ptr %8) #8
  %13 = load i64, ptr %5, align 4
  %14 = call i32 @fsm_logical_to_physical(i64 %13)
  store i32 %14, ptr %8, align 4
  call void @llvm.lifetime.start.p0(i64 4, ptr %9) #8
  call void @llvm.lifetime.start.p0(i64 8, ptr %10) #8
  %15 = load ptr, ptr %6, align 8
  %16 = call ptr @RelationGetSmgr(ptr noundef %15)
  store ptr %16, ptr %10, align 8
  %17 = load ptr, ptr %10, align 8
  %18 = getelementptr inbounds nuw %struct.SMgrRelationData, ptr %17, i32 0, i32 2
  %19 = getelementptr inbounds [4 x i32], ptr %18, i64 0, i64 1
  %20 = load i32, ptr %19, align 4
  %21 = icmp eq i32 %20, -1
  br i1 %21, label %29, label %22

22:                                               ; preds = %3
  %23 = load i32, ptr %8, align 4
  %24 = load ptr, ptr %10, align 8
  %25 = getelementptr inbounds nuw %struct.SMgrRelationData, ptr %24, i32 0, i32 2
  %26 = getelementptr inbounds [4 x i32], ptr %25, i64 0, i64 1
  %27 = load i32, ptr %26, align 4
  %28 = icmp uge i32 %23, %27
  br i1 %28, label %29, label %43

29:                                               ; preds = %22, %3
  %30 = load ptr, ptr %10, align 8
  %31 = getelementptr inbounds nuw %struct.SMgrRelationData, ptr %30, i32 0, i32 2
  %32 = getelementptr inbounds [4 x i32], ptr %31, i64 0, i64 1
  store i32 -1, ptr %32, align 4
  %33 = load ptr, ptr %10, align 8
  %34 = call zeroext i1 @smgrexists(ptr noundef %33, i32 noundef 1)
  br i1 %34, label %35, label %38

35:                                               ; preds = %29
  %36 = load ptr, ptr %10, align 8
  %37 = call i32 @smgrnblocks(ptr noundef %36, i32 noundef 1)
  br label %42

38:                                               ; preds = %29
  %39 = load ptr, ptr %10, align 8
  %40 = getelementptr inbounds nuw %struct.SMgrRelationData, ptr %39, i32 0, i32 2
  %41 = getelementptr inbounds [4 x i32], ptr %40, i64 0, i64 1
  store i32 0, ptr %41, align 4
  br label %42

42:                                               ; preds = %38, %35
  br label %43

43:                                               ; preds = %42, %22
  %44 = load i32, ptr %8, align 4
  %45 = load ptr, ptr %10, align 8
  %46 = getelementptr inbounds nuw %struct.SMgrRelationData, ptr %45, i32 0, i32 2
  %47 = getelementptr inbounds [4 x i32], ptr %46, i64 0, i64 1
  %48 = load i32, ptr %47, align 4
  %49 = icmp uge i32 %44, %48
  br i1 %49, label %50, label %60

50:                                               ; preds = %43
  %51 = load i8, ptr %7, align 1, !range !7, !noundef !8
  %52 = trunc i8 %51 to i1
  br i1 %52, label %53, label %58

53:                                               ; preds = %50
  %54 = load ptr, ptr %6, align 8
  %55 = load i32, ptr %8, align 4
  %56 = add i32 %55, 1
  %57 = call i32 @fsm_extend(ptr noundef %54, i32 noundef %56)
  store i32 %57, ptr %9, align 4
  br label %59

58:                                               ; preds = %50
  store i32 0, ptr %4, align 4
  store i32 1, ptr %11, align 4
  br label %80

59:                                               ; preds = %53
  br label %64

60:                                               ; preds = %43
  %61 = load ptr, ptr %6, align 8
  %62 = load i32, ptr %8, align 4
  %63 = call i32 @ReadBufferExtended(ptr noundef %61, i32 noundef 1, i32 noundef %62, i32 noundef 3, ptr noundef null)
  store i32 %63, ptr %9, align 4
  br label %64

64:                                               ; preds = %60, %59
  %65 = load i32, ptr %9, align 4
  %66 = call ptr @BufferGetPage(i32 noundef %65)
  %67 = call zeroext i1 @PageIsNew(ptr noundef %66)
  br i1 %67, label %68, label %78

68:                                               ; preds = %64
  %69 = load i32, ptr %9, align 4
  call void @LockBuffer(i32 noundef %69, i32 noundef 2)
  %70 = load i32, ptr %9, align 4
  %71 = call ptr @BufferGetPage(i32 noundef %70)
  %72 = call zeroext i1 @PageIsNew(ptr noundef %71)
  br i1 %72, label %73, label %76

73:                                               ; preds = %68
  %74 = load i32, ptr %9, align 4
  %75 = call ptr @BufferGetPage(i32 noundef %74)
  call void @PageInit(ptr noundef %75, i64 noundef 8192, i64 noundef 0)
  br label %76

76:                                               ; preds = %73, %68
  %77 = load i32, ptr %9, align 4
  call void @LockBuffer(i32 noundef %77, i32 noundef 0)
  br label %78

78:                                               ; preds = %76, %64
  %79 = load i32, ptr %9, align 4
  store i32 %79, ptr %4, align 4
  store i32 1, ptr %11, align 4
  br label %80

80:                                               ; preds = %78, %58
  call void @llvm.lifetime.end.p0(i64 8, ptr %10) #8
  call void @llvm.lifetime.end.p0(i64 4, ptr %9) #8
  call void @llvm.lifetime.end.p0(i64 4, ptr %8) #8
  %81 = load i32, ptr %4, align 4
  ret i32 %81
}