; Function Attrs: nounwind uwtable
define internal fastcc i32 @fsm_readbuf(ptr noundef %0, i64 %1, i1 noundef zeroext %2) unnamed_addr #0 {
  %4 = alloca %struct.BufferManagerRelation, align 8
  %.sroa.0.0.extract.trunc.i = trunc i64 %1 to i32
  %.sroa.3.0.extract.shift.i = lshr i64 %1, 32
  %5 = icmp sgt i32 %.sroa.0.0.extract.trunc.i, 0
  br i1 %5, label %.lr.ph.i, label %.preheader.i.preheader

.lr.ph.i:                                         ; preds = %3, %.lr.ph.i
  %.016.i = phi i32 [ %8, %.lr.ph.i ], [ 0, %3 ]
  %.011.in15.i = phi i64 [ %7, %.lr.ph.i ], [ %.sroa.3.0.extract.shift.i, %3 ]
  %sext.i = shl i64 %.011.in15.i, 32
  %6 = ashr exact i64 %sext.i, 32
  %7 = mul nsw i64 %6, 4069
  %8 = add nuw nsw i32 %.016.i, 1
  %exitcond.not.i = icmp eq i32 %8, %.sroa.0.0.extract.trunc.i
  br i1 %exitcond.not.i, label %.preheader.i.preheader, label %.lr.ph.i, !llvm.loop !7

.preheader.i.preheader:                           ; preds = %.lr.ph.i, %3
  %.112.in18.i.ph = phi i64 [ %.sroa.3.0.extract.shift.i, %3 ], [ %7, %.lr.ph.i ]
  br label %.preheader.i

.preheader.i:                                     ; preds = %.preheader.i.preheader, %.preheader.i
  %.119.i = phi i32 [ %13, %.preheader.i ], [ 0, %.preheader.i.preheader ]
  %.112.in18.i = phi i64 [ %12, %.preheader.i ], [ %.112.in18.i.ph, %.preheader.i.preheader ]
  %.01317.i = phi i32 [ %10, %.preheader.i ], [ 0, %.preheader.i.preheader ]
  %.112.i = trunc i64 %.112.in18.i to i32
  %9 = add i32 %.01317.i, 1
  %10 = add i32 %9, %.112.i
  %sext14.i = shl i64 %.112.in18.i, 32
  %11 = ashr exact i64 %sext14.i, 32
  %12 = udiv i64 %11, 4069
  %13 = add nuw nsw i32 %.119.i, 1
  %exitcond21.not.i = icmp eq i32 %13, 3
  br i1 %exitcond21.not.i, label %fsm_logical_to_physical.exit, label %.preheader.i, !llvm.loop !5

fsm_logical_to_physical.exit:                     ; preds = %.preheader.i
  %14 = xor i32 %.sroa.0.0.extract.trunc.i, -1
  %15 = add i32 %10, %14
  %16 = getelementptr inbounds nuw i8, ptr %0, i64 16
  %17 = load ptr, ptr %16, align 8
  %18 = icmp eq ptr %17, null
  br i1 %18, label %19, label %RelationGetSmgr.exit, !prof !4

19:                                               ; preds = %fsm_logical_to_physical.exit
  %20 = getelementptr inbounds nuw i8, ptr %0, i64 28
  %21 = load i32, ptr %20, align 4
  %.sroa.0.0.copyload.i = load i64, ptr %0, align 8
  %.sroa.2.0..sroa_idx.i = getelementptr inbounds nuw i8, ptr %0, i64 8
  %.sroa.2.0.copyload.i = load i32, ptr %.sroa.2.0..sroa_idx.i, align 8
  %22 = tail call ptr @smgropen(i64 %.sroa.0.0.copyload.i, i32 %.sroa.2.0.copyload.i, i32 noundef %21) #8
  store ptr %22, ptr %16, align 8
  tail call void @smgrpin(ptr noundef %22) #8
  %.pre.i = load ptr, ptr %16, align 8
  br label %RelationGetSmgr.exit

RelationGetSmgr.exit:                             ; preds = %fsm_logical_to_physical.exit, %19
  %23 = phi ptr [ %.pre.i, %19 ], [ %17, %fsm_logical_to_physical.exit ]
  %24 = getelementptr inbounds nuw i8, ptr %23, i64 24
  %25 = load i32, ptr %24, align 4
  %26 = icmp ne i32 %25, -1
  %.not = icmp ult i32 %15, %25
  %or.cond = select i1 %26, i1 %.not, i1 false
  br i1 %or.cond, label %31, label %27

27:                                               ; preds = %RelationGetSmgr.exit
  store i32 -1, ptr %24, align 4
  %28 = tail call zeroext i1 @smgrexists(ptr noundef nonnull %23, i32 noundef 1) #8
  br i1 %28, label %29, label %.thread

29:                                               ; preds = %27
  %30 = tail call i32 @smgrnblocks(ptr noundef nonnull %23, i32 noundef 1) #8
  %.pre = load i32, ptr %24, align 4
  br label %31

.thread:                                          ; preds = %27
  store i32 0, ptr %24, align 4
  br label %33

31:                                               ; preds = %RelationGetSmgr.exit, %29
  %32 = phi i32 [ %25, %RelationGetSmgr.exit ], [ %.pre, %29 ]
  %.not24 = icmp ult i32 %15, %32
  br i1 %.not24, label %38, label %33

33:                                               ; preds = %.thread, %31
  br i1 %2, label %34, label %66

34:                                               ; preds = %33
  %35 = sub i32 %10, %.sroa.0.0.extract.trunc.i
  call void @llvm.lifetime.start.p0(i64 24, ptr nonnull %4)
  store ptr %0, ptr %4, align 8
  %36 = getelementptr inbounds nuw i8, ptr %4, i64 8
  call void @llvm.memset.p0.i64(ptr noundef nonnull align 8 dereferenceable(16) %36, i8 0, i64 16, i1 false)
  %37 = tail call i32 @ExtendBufferedRelTo(ptr noundef nonnull byval(%struct.BufferManagerRelation) align 8 %4, i32 noundef 1, ptr noundef null, i32 noundef 20, i32 noundef %35, i32 noundef 3) #8
  call void @llvm.lifetime.end.p0(i64 24, ptr nonnull %4)
  br label %40

38:                                               ; preds = %31
  %39 = tail call i32 @ReadBufferExtended(ptr noundef nonnull %0, i32 noundef 1, i32 noundef %15, i32 noundef 3, ptr noundef null) #8
  br label %40

40:                                               ; preds = %38, %34
  %.021 = phi i32 [ %37, %34 ], [ %39, %38 ]
  %41 = icmp slt i32 %.021, 0
  br i1 %41, label %BufferGetPage.exit, label %BufferGetPage.exit.thread

BufferGetPage.exit:                               ; preds = %40
  %42 = load ptr, ptr @LocalBufferBlockPointers, align 8
  %43 = xor i32 %.021, -1
  %44 = zext nneg i32 %43 to i64
  %45 = getelementptr inbounds nuw ptr, ptr %42, i64 %44
  %46 = load ptr, ptr %45, align 8
  %47 = getelementptr i8, ptr %46, i64 14
  %.val25 = load i16, ptr %47, align 2
  %48 = icmp eq i16 %.val25, 0
  br i1 %48, label %BufferGetPage.exit27, label %66

BufferGetPage.exit.thread:                        ; preds = %40
  %49 = load ptr, ptr @BufferBlocks, align 8
  %50 = add nsw i32 %.021, -1
  %51 = sext i32 %50 to i64
  %52 = shl nsw i64 %51, 13
  %53 = getelementptr inbounds nuw i8, ptr %49, i64 %52
  %54 = getelementptr i8, ptr %53, i64 14
  %.val2531 = load i16, ptr %54, align 2
  %55 = icmp eq i16 %.val2531, 0
  br i1 %55, label %BufferGetPage.exit27.thread, label %66

BufferGetPage.exit27:                             ; preds = %BufferGetPage.exit
  tail call void @LockBuffer(i32 noundef %.021, i32 noundef 2) #8
  %56 = load ptr, ptr @LocalBufferBlockPointers, align 8
  %57 = getelementptr inbounds nuw ptr, ptr %56, i64 %44
  %58 = load ptr, ptr %57, align 8
  %59 = getelementptr i8, ptr %58, i64 14
  %.val = load i16, ptr %59, align 2
  %60 = icmp eq i16 %.val, 0
  br i1 %60, label %BufferGetPage.exit29, label %65

BufferGetPage.exit27.thread:                      ; preds = %BufferGetPage.exit.thread
  tail call void @LockBuffer(i32 noundef %.021, i32 noundef 2) #8
  %61 = load ptr, ptr @BufferBlocks, align 8
  %62 = getelementptr inbounds nuw i8, ptr %61, i64 %52
  %63 = getelementptr i8, ptr %62, i64 14
  %.val33 = load i16, ptr %63, align 2
  %64 = icmp eq i16 %.val33, 0
  br i1 %64, label %BufferGetPage.exit29, label %65

BufferGetPage.exit29:                             ; preds = %BufferGetPage.exit27.thread, %BufferGetPage.exit27
  %.0.i.i28 = phi ptr [ %58, %BufferGetPage.exit27 ], [ %62, %BufferGetPage.exit27.thread ]
  tail call void @PageInit(ptr noundef nonnull %.0.i.i28, i64 noundef 8192, i64 noundef 0) #8
  br label %65

65:                                               ; preds = %BufferGetPage.exit27.thread, %BufferGetPage.exit29, %BufferGetPage.exit27
  tail call void @LockBuffer(i32 noundef %.021, i32 noundef 0) #8
  br label %66

66:                                               ; preds = %BufferGetPage.exit.thread, %BufferGetPage.exit, %65, %33
  %.0 = phi i32 [ 0, %33 ], [ %.021, %65 ], [ %.021, %BufferGetPage.exit ], [ %.021, %BufferGetPage.exit.thread ]
  ret i32 %.0
}